target datalayout = "e-m:e-p270:32:32-p271:32:32-p272:64:64-i64:64-i128:128-f80:128-n8:16:32:64-S128"
target triple = "x86_64-pc-linux-gnu"

%struct.CVodeMemRec = type { double, ptr, ptr, i32, i32, i32, double, double, ptr, i32, ptr, ptr, i32, ptr, i32, i32, double, double, ptr, i32, i32, i32, ptr, ptr, ptr, i32, i32, ptr, ptr, ptr, i32, double, i32, i32, double, ptr, ptr, i32, ptr, ptr, i32, i32, i32, double, ptr, ptr, [13 x ptr], ptr, ptr, ptr, ptr, ptr, [13 x ptr], ptr, ptr, ptr, ptr, [13 x ptr], ptr, ptr, ptr, ptr, ptr, i32, [13 x ptr], ptr, ptr, ptr, ptr, ptr, i32, double, i32, i32, i32, i32, i32, double, double, double, double, double, double, double, double, [14 x double], [6 x double], [13 x double], double, double, double, double, double, double, double, double, double, double, double, i32, ptr, i32, i64, i32, i32, i32, i32, i32, double, double, double, i64, i64, i64, i64, i64, i64, i64, i64, i64, ptr, i64, i64, ptr, i64, i64, i64, i64, i64, i64, i32, i64, i64, i64, i64, i64, i64, double, double, double, ptr, ptr, ptr, ptr, ptr, i32, i32, i64, double, double, double, i32, double, i32, i32, i32, i32, i32, i32, i32, i32, i32, i32, i32, i32, i32, i32, i32, i32, ptr, ptr, ptr, i32, [6 x [4 x double]], i32, i64, ptr, i32, ptr, ptr, double, double, double, ptr, ptr, ptr, double, double, i32, i32, i64, ptr, i32, i32, ptr, i32 }
%struct._generic_N_Vector = type { ptr, ptr }
%struct._generic_N_Vector_Ops = type { ptr, ptr, ptr, ptr, ptr, ptr, ptr, ptr, ptr, ptr, ptr, ptr, ptr, ptr, ptr, ptr, ptr, ptr, ptr, ptr, ptr, ptr, ptr, ptr, ptr }
%struct.CVSpilsMemRec = type { i32, i32, i32, double, double, double, double, i32, i64, i64, i64, i64, i64, i64, i64, ptr, ptr, ptr, ptr, ptr, ptr, ptr, ptr, ptr, i32, ptr, ptr, i64 }

@.str = private unnamed_addr constant [8 x i8] c"CVSPGMR\00", align 1
@.str.1 = private unnamed_addr constant [8 x i8] c"CVSpgmr\00", align 1
@.str.2 = private unnamed_addr constant [27 x i8] c"Integrator memory is NULL.\00", align 1
@.str.3 = private unnamed_addr constant [48 x i8] c"A required vector operation is not implemented.\00", align 1
@.str.4 = private unnamed_addr constant [25 x i8] c"A memory request failed.\00", align 1
@.str.5 = private unnamed_addr constant [93 x i8] c"Illegal value for pretype. Legal values are PREC_NONE, PREC_LEFT, PREC_RIGHT, and PREC_BOTH.\00", align 1

; Function Attrs: nounwind uwtable
define i32 @CVSpgmr(ptr noundef %0, i32 noundef %1, i32 noundef %2) #0 {
  %4 = alloca i32, align 4
  %5 = alloca ptr, align 8
  %6 = alloca i32, align 4
  %7 = alloca i32, align 4
  %8 = alloca ptr, align 8
  %9 = alloca ptr, align 8
  %10 = alloca ptr, align 8
  %11 = alloca i32, align 4
  %12 = alloca i32, align 4
  store ptr %0, ptr %5, align 8, !tbaa !3
  store i32 %1, ptr %6, align 4, !tbaa !7
  store i32 %2, ptr %7, align 4, !tbaa !7
  call void @llvm.lifetime.start.p0(i64 8, ptr %8) #5
  call void @llvm.lifetime.start.p0(i64 8, ptr %9) #5
  call void @llvm.lifetime.start.p0(i64 8, ptr %10) #5
  call void @llvm.lifetime.start.p0(i64 4, ptr %11) #5
  %13 = load ptr, ptr %5, align 8, !tbaa !3
  %14 = icmp eq ptr %13, null
  br i1 %14, label %15, label %16

15:                                               ; preds = %3
  call void (ptr, i32, ptr, ptr, ptr, ...) @cvProcessError(ptr noundef null, i32 noundef -1, ptr noundef @.str, ptr noundef @.str.1, ptr noundef @.str.2)
  store i32 -1, ptr %4, align 4
  store i32 1, ptr %12, align 4
  br label %174

16:                                               ; preds = %3
  %17 = load ptr, ptr %5, align 8, !tbaa !3
  store ptr %17, ptr %8, align 8, !tbaa !9
  %18 = load ptr, ptr %8, align 8, !tbaa !9
  %19 = getelementptr inbounds nuw %struct.CVodeMemRec, ptr %18, i32 0, i32 50
  %20 = load ptr, ptr %19, align 8, !tbaa !11
  %21 = getelementptr inbounds nuw %struct._generic_N_Vector, ptr %20, i32 0, i32 1
  %22 = load ptr, ptr %21, align 8, !tbaa !22
  %23 = getelementptr inbounds nuw %struct._generic_N_Vector_Ops, ptr %22, i32 0, i32 14
  %24 = load ptr, ptr %23, align 8, !tbaa !25
  %25 = icmp eq ptr %24, null
  br i1 %25, label %26, label %28

26:                                               ; preds = %16
  %27 = load ptr, ptr %8, align 8, !tbaa !9
  call void (ptr, i32, ptr, ptr, ptr, ...) @cvProcessError(ptr noundef %27, i32 noundef -3, ptr noundef @.str, ptr noundef @.str.1, ptr noundef @.str.3)
  store i32 -3, ptr %4, align 4
  store i32 1, ptr %12, align 4
  br label %174

28:                                               ; preds = %16
  %29 = load ptr, ptr %8, align 8, !tbaa !9
  %30 = getelementptr inbounds nuw %struct.CVodeMemRec, ptr %29, i32 0, i32 143
  %31 = load ptr, ptr %30, align 8, !tbaa !27
  %32 = icmp ne ptr %31, null
  br i1 %32, label %33, label %38

33:                                               ; preds = %28
  %34 = load ptr, ptr %8, align 8, !tbaa !9
  %35 = getelementptr inbounds nuw %struct.CVodeMemRec, ptr %34, i32 0, i32 143
  %36 = load ptr, ptr %35, align 8, !tbaa !27
  %37 = load ptr, ptr %8, align 8, !tbaa !9
  call void %36(ptr noundef %37)
  br label %38

38:                                               ; preds = %33, %28
  %39 = load ptr, ptr %8, align 8, !tbaa !9
  %40 = getelementptr inbounds nuw %struct.CVodeMemRec, ptr %39, i32 0, i32 140
  store ptr @CVSpgmrInit, ptr %40, align 8, !tbaa !28
  %41 = load ptr, ptr %8, align 8, !tbaa !9
  %42 = getelementptr inbounds nuw %struct.CVodeMemRec, ptr %41, i32 0, i32 141
  store ptr @CVSpgmrSetup, ptr %42, align 8, !tbaa !29
  %43 = load ptr, ptr %8, align 8, !tbaa !9
  %44 = getelementptr inbounds nuw %struct.CVodeMemRec, ptr %43, i32 0, i32 142
  store ptr @CVSpgmrSolve, ptr %44, align 8, !tbaa !30
  %45 = load ptr, ptr %8, align 8, !tbaa !9
  %46 = getelementptr inbounds nuw %struct.CVodeMemRec, ptr %45, i32 0, i32 143
  store ptr @CVSpgmrFree, ptr %46, align 8, !tbaa !27
  store ptr null, ptr %9, align 8, !tbaa !31
  %47 = call noalias ptr @malloc(i64 noundef 216) #6
  store ptr %47, ptr %9, align 8, !tbaa !31
  %48 = load ptr, ptr %9, align 8, !tbaa !31
  %49 = icmp eq ptr %48, null
  br i1 %49, label %50, label %52

50:                                               ; preds = %38
  %51 = load ptr, ptr %8, align 8, !tbaa !9
  call void (ptr, i32, ptr, ptr, ptr, ...) @cvProcessError(ptr noundef %51, i32 noundef -4, ptr noundef @.str, ptr noundef @.str.1, ptr noundef @.str.4)
  store i32 -4, ptr %4, align 4
  store i32 1, ptr %12, align 4
  br label %174

52:                                               ; preds = %38
  %53 = load ptr, ptr %9, align 8, !tbaa !31
  %54 = getelementptr inbounds nuw %struct.CVSpilsMemRec, ptr %53, i32 0, i32 0
  store i32 1, ptr %54, align 8, !tbaa !33
  %55 = load i32, ptr %6, align 4, !tbaa !7
  %56 = load ptr, ptr %9, align 8, !tbaa !31
  %57 = getelementptr inbounds nuw %struct.CVSpilsMemRec, ptr %56, i32 0, i32 1
  store i32 %55, ptr %57, align 4, !tbaa !35
  %58 = load i32, ptr %7, align 4, !tbaa !7
  %59 = icmp sle i32 %58, 0
  br i1 %59, label %60, label %61

60:                                               ; preds = %52
  br label %63

61:                                               ; preds = %52
  %62 = load i32, ptr %7, align 4, !tbaa !7
  br label %63

63:                                               ; preds = %61, %60
  %64 = phi i32 [ 5, %60 ], [ %62, %61 ]
  %65 = load ptr, ptr %9, align 8, !tbaa !31
  %66 = getelementptr inbounds nuw %struct.CVSpilsMemRec, ptr %65, i32 0, i32 7
  store i32 %64, ptr %66, align 8, !tbaa !36
  store i32 %64, ptr %11, align 4, !tbaa !7
  %67 = load ptr, ptr %9, align 8, !tbaa !31
  %68 = getelementptr inbounds nuw %struct.CVSpilsMemRec, ptr %67, i32 0, i32 24
  store i32 1, ptr %68, align 8, !tbaa !37
  %69 = load ptr, ptr %9, align 8, !tbaa !31
  %70 = getelementptr inbounds nuw %struct.CVSpilsMemRec, ptr %69, i32 0, i32 25
  store ptr null, ptr %70, align 8, !tbaa !38
  %71 = load ptr, ptr %9, align 8, !tbaa !31
  %72 = getelementptr inbounds nuw %struct.CVSpilsMemRec, ptr %71, i32 0, i32 26
  store ptr null, ptr %72, align 8, !tbaa !39
  %73 = load ptr, ptr %9, align 8, !tbaa !31
  %74 = getelementptr inbounds nuw %struct.CVSpilsMemRec, ptr %73, i32 0, i32 20
  store ptr null, ptr %74, align 8, !tbaa !40
  %75 = load ptr, ptr %9, align 8, !tbaa !31
  %76 = getelementptr inbounds nuw %struct.CVSpilsMemRec, ptr %75, i32 0, i32 21
  store ptr null, ptr %76, align 8, !tbaa !41
  %77 = load ptr, ptr %9, align 8, !tbaa !31
  %78 = getelementptr inbounds nuw %struct.CVSpilsMemRec, ptr %77, i32 0, i32 22
  store ptr null, ptr %78, align 8, !tbaa !42
  %79 = load ptr, ptr %8, align 8, !tbaa !9
  %80 = getelementptr inbounds nuw %struct.CVodeMemRec, ptr %79, i32 0, i32 2
  %81 = load ptr, ptr %80, align 8, !tbaa !43
  %82 = load ptr, ptr %9, align 8, !tbaa !31
  %83 = getelementptr inbounds nuw %struct.CVSpilsMemRec, ptr %82, i32 0, i32 23
  store ptr %81, ptr %83, align 8, !tbaa !44
  %84 = load ptr, ptr %9, align 8, !tbaa !31
  %85 = getelementptr inbounds nuw %struct.CVSpilsMemRec, ptr %84, i32 0, i32 2
  store i32 1, ptr %85, align 8, !tbaa !45
  %86 = load ptr, ptr %9, align 8, !tbaa !31
  %87 = getelementptr inbounds nuw %struct.CVSpilsMemRec, ptr %86, i32 0, i32 4
  store double 5.000000e-02, ptr %87, align 8, !tbaa !46
  %88 = load ptr, ptr %9, align 8, !tbaa !31
  %89 = getelementptr inbounds nuw %struct.CVSpilsMemRec, ptr %88, i32 0, i32 27
  store i64 0, ptr %89, align 8, !tbaa !47
  %90 = load ptr, ptr %8, align 8, !tbaa !9
  %91 = getelementptr inbounds nuw %struct.CVodeMemRec, ptr %90, i32 0, i32 158
  store i32 0, ptr %91, align 4, !tbaa !48
  %92 = load i32, ptr %6, align 4, !tbaa !7
  %93 = icmp ne i32 %92, 0
  br i1 %93, label %94, label %106

94:                                               ; preds = %63
  %95 = load i32, ptr %6, align 4, !tbaa !7
  %96 = icmp ne i32 %95, 1
  br i1 %96, label %97, label %106

97:                                               ; preds = %94
  %98 = load i32, ptr %6, align 4, !tbaa !7
  %99 = icmp ne i32 %98, 2
  br i1 %99, label %100, label %106

100:                                              ; preds = %97
  %101 = load i32, ptr %6, align 4, !tbaa !7
  %102 = icmp ne i32 %101, 3
  br i1 %102, label %103, label %106

103:                                              ; preds = %100
  %104 = load ptr, ptr %8, align 8, !tbaa !9
  call void (ptr, i32, ptr, ptr, ptr, ...) @cvProcessError(ptr noundef %104, i32 noundef -3, ptr noundef @.str, ptr noundef @.str.1, ptr noundef @.str.5)
  %105 = load ptr, ptr %9, align 8, !tbaa !31
  call void @free(ptr noundef %105) #5
  store ptr null, ptr %9, align 8, !tbaa !31
  store i32 -3, ptr %4, align 4
  store i32 1, ptr %12, align 4
  br label %174

106:                                              ; preds = %100, %97, %94, %63
  %107 = load ptr, ptr %8, align 8, !tbaa !9
  %108 = getelementptr inbounds nuw %struct.CVodeMemRec, ptr %107, i32 0, i32 50
  %109 = load ptr, ptr %108, align 8, !tbaa !11
  %110 = call ptr @N_VClone(ptr noundef %109)
  %111 = load ptr, ptr %9, align 8, !tbaa !31
  %112 = getelementptr inbounds nuw %struct.CVSpilsMemRec, ptr %111, i32 0, i32 15
  store ptr %110, ptr %112, align 8, !tbaa !49
  %113 = load ptr, ptr %9, align 8, !tbaa !31
  %114 = getelementptr inbounds nuw %struct.CVSpilsMemRec, ptr %113, i32 0, i32 15
  %115 = load ptr, ptr %114, align 8, !tbaa !49
  %116 = icmp eq ptr %115, null
  br i1 %116, label %117, label %120

117:                                              ; preds = %106
  %118 = load ptr, ptr %8, align 8, !tbaa !9
  call void (ptr, i32, ptr, ptr, ptr, ...) @cvProcessError(ptr noundef %118, i32 noundef -4, ptr noundef @.str, ptr noundef @.str.1, ptr noundef @.str.4)
  %119 = load ptr, ptr %9, align 8, !tbaa !31
  call void @free(ptr noundef %119) #5
  store ptr null, ptr %9, align 8, !tbaa !31
  store i32 -4, ptr %4, align 4
  store i32 1, ptr %12, align 4
  br label %174

120:                                              ; preds = %106
  %121 = load ptr, ptr %8, align 8, !tbaa !9
  %122 = getelementptr inbounds nuw %struct.CVodeMemRec, ptr %121, i32 0, i32 50
  %123 = load ptr, ptr %122, align 8, !tbaa !11
  %124 = call ptr @N_VClone(ptr noundef %123)
  %125 = load ptr, ptr %9, align 8, !tbaa !31
  %126 = getelementptr inbounds nuw %struct.CVSpilsMemRec, ptr %125, i32 0, i32 16
  store ptr %124, ptr %126, align 8, !tbaa !50
  %127 = load ptr, ptr %9, align 8, !tbaa !31
  %128 = getelementptr inbounds nuw %struct.CVSpilsMemRec, ptr %127, i32 0, i32 16
  %129 = load ptr, ptr %128, align 8, !tbaa !50
  %130 = icmp eq ptr %129, null
  br i1 %130, label %131, label %137

131:                                              ; preds = %120
  %132 = load ptr, ptr %8, align 8, !tbaa !9
  call void (ptr, i32, ptr, ptr, ptr, ...) @cvProcessError(ptr noundef %132, i32 noundef -4, ptr noundef @.str, ptr noundef @.str.1, ptr noundef @.str.4)
  %133 = load ptr, ptr %9, align 8, !tbaa !31
  %134 = getelementptr inbounds nuw %struct.CVSpilsMemRec, ptr %133, i32 0, i32 15
  %135 = load ptr, ptr %134, align 8, !tbaa !49
  call void @N_VDestroy(ptr noundef %135)
  %136 = load ptr, ptr %9, align 8, !tbaa !31
  call void @free(ptr noundef %136) #5
  store ptr null, ptr %9, align 8, !tbaa !31
  store i32 -4, ptr %4, align 4
  store i32 1, ptr %12, align 4
  br label %174

137:                                              ; preds = %120
  %138 = load ptr, ptr %9, align 8, !tbaa !31
  %139 = getelementptr inbounds nuw %struct.CVSpilsMemRec, ptr %138, i32 0, i32 15
  %140 = load ptr, ptr %139, align 8, !tbaa !49
  call void @N_VConst(double noundef 1.000000e+00, ptr noundef %140)
  %141 = load ptr, ptr %9, align 8, !tbaa !31
  %142 = getelementptr inbounds nuw %struct.CVSpilsMemRec, ptr %141, i32 0, i32 15
  %143 = load ptr, ptr %142, align 8, !tbaa !49
  %144 = load ptr, ptr %9, align 8, !tbaa !31
  %145 = getelementptr inbounds nuw %struct.CVSpilsMemRec, ptr %144, i32 0, i32 15
  %146 = load ptr, ptr %145, align 8, !tbaa !49
  %147 = call double @N_VDotProd(ptr noundef %143, ptr noundef %146)
  %148 = call double @SUNRsqrt(double noundef %147)
  %149 = load ptr, ptr %9, align 8, !tbaa !31
  %150 = getelementptr inbounds nuw %struct.CVSpilsMemRec, ptr %149, i32 0, i32 3
  store double %148, ptr %150, align 8, !tbaa !51
  store ptr null, ptr %10, align 8, !tbaa !52
  %151 = load i32, ptr %11, align 4, !tbaa !7
  %152 = load ptr, ptr %8, align 8, !tbaa !9
  %153 = getelementptr inbounds nuw %struct.CVodeMemRec, ptr %152, i32 0, i32 50
  %154 = load ptr, ptr %153, align 8, !tbaa !11
  %155 = call ptr @SpgmrMalloc(i32 noundef %151, ptr noundef %154)
  store ptr %155, ptr %10, align 8, !tbaa !52
  %156 = load ptr, ptr %10, align 8, !tbaa !52
  %157 = icmp eq ptr %156, null
  br i1 %157, label %158, label %167

158:                                              ; preds = %137
  %159 = load ptr, ptr %8, align 8, !tbaa !9
  call void (ptr, i32, ptr, ptr, ptr, ...) @cvProcessError(ptr noundef %159, i32 noundef -4, ptr noundef @.str, ptr noundef @.str.1, ptr noundef @.str.4)
  %160 = load ptr, ptr %9, align 8, !tbaa !31
  %161 = getelementptr inbounds nuw %struct.CVSpilsMemRec, ptr %160, i32 0, i32 15
  %162 = load ptr, ptr %161, align 8, !tbaa !49
  call void @N_VDestroy(ptr noundef %162)
  %163 = load ptr, ptr %9, align 8, !tbaa !31
  %164 = getelementptr inbounds nuw %struct.CVSpilsMemRec, ptr %163, i32 0, i32 16
  %165 = load ptr, ptr %164, align 8, !tbaa !50
  call void @N_VDestroy(ptr noundef %165)
  %166 = load ptr, ptr %9, align 8, !tbaa !31
  call void @free(ptr noundef %166) #5
  store ptr null, ptr %9, align 8, !tbaa !31
  store i32 -4, ptr %4, align 4
  store i32 1, ptr %12, align 4
  br label %174

167:                                              ; preds = %137
  %168 = load ptr, ptr %10, align 8, !tbaa !52
  %169 = load ptr, ptr %9, align 8, !tbaa !31
  %170 = getelementptr inbounds nuw %struct.CVSpilsMemRec, ptr %169, i32 0, i32 19
  store ptr %168, ptr %170, align 8, !tbaa !54
  %171 = load ptr, ptr %9, align 8, !tbaa !31
  %172 = load ptr, ptr %8, align 8, !tbaa !9
  %173 = getelementptr inbounds nuw %struct.CVodeMemRec, ptr %172, i32 0, i32 144
  store ptr %171, ptr %173, align 8, !tbaa !55
  store i32 0, ptr %4, align 4
  store i32 1, ptr %12, align 4
  br label %174

174:                                              ; preds = %167, %158, %131, %117, %103, %50, %26, %15
  call void @llvm.lifetime.end.p0(i64 4, ptr %11) #5
  call void @llvm.lifetime.end.p0(i64 8, ptr %10) #5
  call void @llvm.lifetime.end.p0(i64 8, ptr %9) #5
  call void @llvm.lifetime.end.p0(i64 8, ptr %8) #5
  %175 = load i32, ptr %4, align 4
  ret i32 %175
}